target datalayout = "e-m:e-p270:32:32-p271:32:32-p272:64:64-i64:64-i128:128-f80:128-n8:16:32:64-S128"
target triple = "x86_64-pc-linux-gnu"

%class.BoolObjectClosure = type { ptr }
%class.G1HeapRegion = type { ptr, ptr, ptr, ptr, ptr, ptr, i32, %class.G1HeapRegionType, ptr, i32, ptr, ptr, ptr, i64, i32, ptr, i32, i32, i64 }
%class.G1HeapRegionType = type { i32 }
%class.GrowableArrayIterator = type <{ ptr, i32, [4 x i8] }>
%class.G1FullGCCompactionPoint = type { ptr, ptr, ptr, ptr, ptr, %class.GrowableArrayIterator }
%class.GrowableArrayView.4 = type { %class.GrowableArrayBase, ptr }
%class.GrowableArrayBase = type { i32, i32 }
%class.G1FullCollector = type { ptr, %class.G1FullGCScope, i32, i8, i8, ptr, ptr, %class.GenericTaskQueueSet, %class.GenericTaskQueueSet.7, %class.PreservedMarksSet, %class.G1FullGCCompactionPoint, %class.G1FullGCCompactionPoint, %class.G1IsAliveClosure, %class.ReferenceProcessorIsAliveMutator, ptr, %class.GrowableArrayCHeap, %class.G1FullGCSubjectToDiscoveryClosure, %class.ReferenceProcessorSubjectToDiscoveryMutator, %class.G1FullGCHeapRegionAttr, ptr }
%class.G1FullGCScope = type { [8 x i8], %class.ResourceMark, i8, ptr, %class.SvcGCMarker, %class.STWGCTimer, ptr, %class.IsSTWGCActiveMark, %class.G1FullGCJFRTracerMark, %class.ClearedAllSoftRefs, %class.G1FullGCMonitoringScope, %class.G1HeapPrinterMark, i64 }
%class.ResourceMark = type { %class.ResourceMarkImpl }
%class.ResourceMarkImpl = type { ptr, %"class.ResourceArea::SavedState" }
%"class.ResourceArea::SavedState" = type { ptr, ptr, ptr, i64 }
%class.SvcGCMarker = type { i8, %class.JvmtiGCMarker }
%class.JvmtiGCMarker = type { i8 }
%class.STWGCTimer = type { %class.GCTimer }
%class.GCTimer = type { ptr, %class.TimeInstant, %class.TimeInstant, %class.TimePartitions }
%class.TimeInstant = type { %class.CompositeCounterRepresentation }
%class.CompositeCounterRepresentation = type { %class.Representation }
%class.Representation = type { %class.PairRep }
%class.PairRep = type { i64, i64 }
%class.TimePartitions = type { ptr, %class.PhasesStack, %class.TimeInterval, %class.TimeInterval }
%class.PhasesStack = type { [6 x i32], i32 }
%class.TimeInterval = type { %class.CompositeCounterRepresentation }
%class.IsSTWGCActiveMark = type { i8 }
%class.G1FullGCJFRTracerMark = type { %class.G1JFRTracerMark }
%class.G1JFRTracerMark = type { ptr, ptr }
%class.ClearedAllSoftRefs = type { i8, ptr }
%class.G1FullGCMonitoringScope = type { %class.G1MonitoringScope }
%class.G1MonitoringScope = type { ptr, %class.TraceCollectorStats, %class.TraceMemoryManagerStats }
%class.TraceCollectorStats = type { %class.PerfTraceTimedEvent, ptr }
%class.PerfTraceTimedEvent = type { %class.PerfTraceTime, ptr }
%class.PerfTraceTime = type { %class.elapsedTimer, ptr }
%class.elapsedTimer = type <{ i64, i64, i8, [7 x i8] }>
%class.TraceMemoryManagerStats = type { ptr, i32, ptr, i8, i8, i8, i8, i8, i8, i8, i8 }
%class.G1HeapPrinterMark = type { ptr, %class.G1HeapTransition }
%class.G1HeapTransition = type { ptr, %"struct.G1HeapTransition::Data" }
%"struct.G1HeapTransition::Data" = type { i64, i64, i64, i64, %class.MetaspaceCombinedStats, ptr, ptr }
%class.MetaspaceCombinedStats = type { %class.MetaspaceStats, %class.MetaspaceStats, %class.MetaspaceStats }
%class.MetaspaceStats = type { i64, i64, i64 }
%class.GenericTaskQueueSet = type { %class.TaskQueueSetSuperImpl, i32, ptr }
%class.TaskQueueSetSuperImpl = type { %class.TaskQueueSetSuper }
%class.TaskQueueSetSuper = type { ptr }
%class.GenericTaskQueueSet.7 = type { %class.TaskQueueSetSuperImpl, i32, ptr }
%class.PreservedMarksSet = type { i8, i32, ptr }
%class.G1IsAliveClosure = type { %class.BoolObjectClosure, ptr, ptr }
%class.ReferenceProcessorIsAliveMutator = type { ptr, ptr }
%class.GrowableArrayCHeap = type { %class.GrowableArrayWithAllocator.8 }
%class.GrowableArrayWithAllocator.8 = type { %class.GrowableArrayView.4 }
%class.G1FullGCSubjectToDiscoveryClosure = type { %class.BoolObjectClosure }
%class.ReferenceProcessorSubjectToDiscoveryMutator = type { ptr, ptr }
%class.G1FullGCHeapRegionAttr = type { %class.G1BiasedMappedArray.base.10, [4 x i8] }
%class.G1BiasedMappedArray.base.10 = type { %class.G1BiasedMappedArrayBase.base }
%class.G1BiasedMappedArrayBase.base = type <{ ptr, ptr, ptr, i64, ptr, i64, i32 }>
%"struct.Atomic::StoreImpl" = type { i8 }
%"struct.Atomic::PlatformStore" = type { i8 }
%"struct.Atomic::LoadImpl" = type { i8 }
%"struct.Atomic::PlatformLoad" = type { i8 }

; Function Attrs: mustprogress nounwind uwtable
define linkonce_odr hidden noundef ptr @_ZNK6Atomic12PlatformLoadILm8EEclIPP12HeapWordImplEET_PVKS6_(ptr noundef nonnull align 1 dereferenceable(1) %0, ptr noundef %1) #1 comdat align 2 {
  %3 = alloca ptr, align 8
  %4 = alloca ptr, align 8
  store ptr %0, ptr %3, align 8
  store ptr %1, ptr %4, align 8
  %5 = load ptr, ptr %4, align 8
  %6 = load volatile ptr, ptr %5, align 8
  ret ptr %6
}

; Function Attrs: mustprogress nounwind uwtable
define linkonce_odr hidden noundef ptr @_ZNK6Atomic8LoadImplIPP12HeapWordImplNS_12PlatformLoadILm8EEEvEclEPVKS3_(ptr noundef nonnull align 1 dereferenceable(1) %0, ptr noundef %1) #1 comdat align 2 {
  %3 = alloca ptr, align 8
  %4 = alloca ptr, align 8
  %5 = alloca %"struct.Atomic::PlatformLoad", align 1
  store ptr %0, ptr %3, align 8
  store ptr %1, ptr %4, align 8
  %6 = load ptr, ptr %4, align 8
  %7 = call noundef ptr @_ZNK6Atomic12PlatformLoadILm8EEclIPP12HeapWordImplEET_PVKS6_(ptr noundef nonnull align 1 dereferenceable(1) %5, ptr noundef %6)
  ret ptr %7
}

; Function Attrs: mustprogress nounwind uwtable
define linkonce_odr hidden void @_ZNK6Atomic13PlatformStoreILm8EEclIPP12HeapWordImplEEvPVT_S6_(ptr noundef nonnull align 1 dereferenceable(1) %0, ptr noundef %1, ptr noundef %2) #1 comdat align 2 {
  %4 = alloca ptr, align 8
  %5 = alloca ptr, align 8
  %6 = alloca ptr, align 8
  store ptr %0, ptr %4, align 8
  store ptr %1, ptr %5, align 8
  store ptr %2, ptr %6, align 8
  %7 = load ptr, ptr %6, align 8
  %8 = load ptr, ptr %5, align 8
  store volatile ptr %7, ptr %8, align 8
  ret void
}

; Function Attrs: mustprogress nounwind uwtable
define linkonce_odr hidden noundef ptr @_ZN6Atomic4loadIPP12HeapWordImplEET_PVKS4_(ptr noundef %0) #1 comdat align 2 {
  %2 = alloca ptr, align 8
  %3 = alloca %"struct.Atomic::LoadImpl", align 1
  store ptr %0, ptr %2, align 8
  %4 = load ptr, ptr %2, align 8
  %5 = call noundef ptr @_ZNK6Atomic8LoadImplIPP12HeapWordImplNS_12PlatformLoadILm8EEEvEclEPVKS3_(ptr noundef nonnull align 1 dereferenceable(1) %3, ptr noundef %4)
  ret ptr %5
}

; Function Attrs: mustprogress nounwind uwtable
define linkonce_odr hidden noundef nonnull align 8 dereferenceable(8) ptr @_ZNK17GrowableArrayViewIP12G1HeapRegionE2atEi(ptr noundef nonnull align 8 dereferenceable(16) %0, i32 noundef %1) #1 comdat align 2 {
  %3 = alloca ptr, align 8
  %4 = alloca i32, align 4
  store ptr %0, ptr %3, align 8
  store i32 %1, ptr %4, align 4
  %5 = load ptr, ptr %3, align 8
  %6 = getelementptr inbounds %class.GrowableArrayView.4, ptr %5, i32 0, i32 1
  %7 = load ptr, ptr %6, align 8
  %8 = load i32, ptr %4, align 4
  %9 = sext i32 %8 to i64
  %10 = getelementptr inbounds ptr, ptr %7, i64 %9
  ret ptr %10
}

; Function Attrs: mustprogress nounwind uwtable
define linkonce_odr hidden void @_ZNK6Atomic9StoreImplIPP12HeapWordImplS3_NS_13PlatformStoreILm8EEEvEclEPVS3_S3_(ptr noundef nonnull align 1 dereferenceable(1) %0, ptr noundef %1, ptr noundef %2) #1 comdat align 2 {
  %4 = alloca ptr, align 8
  %5 = alloca ptr, align 8
  %6 = alloca ptr, align 8
  %7 = alloca ptr, align 8
  %8 = alloca %"struct.Atomic::PlatformStore", align 1
  store ptr %0, ptr %4, align 8
  store ptr %1, ptr %5, align 8
  store ptr %2, ptr %6, align 8
  %9 = load ptr, ptr %6, align 8
  store ptr %9, ptr %7, align 8
  %10 = load ptr, ptr %5, align 8
  %11 = load ptr, ptr %7, align 8
  call void @_ZNK6Atomic13PlatformStoreILm8EEclIPP12HeapWordImplEEvPVT_S6_(ptr noundef nonnull align 1 dereferenceable(1) %8, ptr noundef %10, ptr noundef %11)
  ret void
}

; Function Attrs: mustprogress nounwind uwtable
define linkonce_odr hidden noundef ptr @_ZNK15G1FullCollector14compaction_topEP12G1HeapRegion(ptr noundef nonnull align 8 dereferenceable(824) %0, ptr noundef %1) #1 comdat align 2 {
  %3 = alloca ptr, align 8
  %4 = alloca ptr, align 8
  store ptr %0, ptr %3, align 8
  store ptr %1, ptr %4, align 8
  %5 = load ptr, ptr %3, align 8
  %6 = getelementptr inbounds %class.G1FullCollector, ptr %5, i32 0, i32 19
  %7 = load ptr, ptr %6, align 8
  %8 = load ptr, ptr %4, align 8
  %9 = call noundef i32 @_ZNK12G1HeapRegion9hrm_indexEv(ptr noundef nonnull align 8 dereferenceable(136) %8)
  %10 = zext i32 %9 to i64
  %11 = getelementptr inbounds ptr, ptr %7, i64 %10
  %12 = call noundef ptr @_ZN6Atomic4loadIPP12HeapWordImplEET_PVKS4_(ptr noundef %11)
  ret ptr %12
}

; Function Attrs: mustprogress nounwind uwtable
define linkonce_odr hidden noundef ptr @_ZN21GrowableArrayIteratorIP12G1HeapRegionEdeEv(ptr noundef nonnull align 8 dereferenceable(12) %0) #1 comdat align 2 {
  %2 = alloca ptr, align 8
  store ptr %0, ptr %2, align 8
  %3 = load ptr, ptr %2, align 8
  %4 = getelementptr inbounds %class.GrowableArrayIterator, ptr %3, i32 0, i32 0
  %5 = load ptr, ptr %4, align 8
  %6 = getelementptr inbounds %class.GrowableArrayIterator, ptr %3, i32 0, i32 1
  %7 = load i32, ptr %6, align 8
  %8 = call noundef nonnull align 8 dereferenceable(8) ptr @_ZNK17GrowableArrayViewIP12G1HeapRegionE2atEi(ptr noundef nonnull align 8 dereferenceable(16) %5, i32 noundef %7)
  %9 = load ptr, ptr %8, align 8
  ret ptr %9
}

; Function Attrs: mustprogress nounwind uwtable
define linkonce_odr hidden noundef nonnull align 8 dereferenceable(12) ptr @_ZN21GrowableArrayIteratorIP12G1HeapRegionEppEv(ptr noundef nonnull align 8 dereferenceable(12) %0) #1 comdat align 2 {
  %2 = alloca ptr, align 8
  store ptr %0, ptr %2, align 8
  %3 = load ptr, ptr %2, align 8
  %4 = getelementptr inbounds %class.GrowableArrayIterator, ptr %3, i32 0, i32 1
  %5 = load i32, ptr %4, align 8
  %6 = add nsw i32 %5, 1
  store i32 %6, ptr %4, align 8
  ret ptr %3
}

; Function Attrs: mustprogress nounwind uwtable
define linkonce_odr hidden void @_ZN6Atomic5storeIPP12HeapWordImplS3_EEvPVT_T0_(ptr noundef %0, ptr noundef %1) #1 comdat align 2 {
  %3 = alloca ptr, align 8
  %4 = alloca ptr, align 8
  %5 = alloca %"struct.Atomic::StoreImpl", align 1
  store ptr %0, ptr %3, align 8
  store ptr %1, ptr %4, align 8
  %6 = load ptr, ptr %3, align 8
  %7 = load ptr, ptr %4, align 8
  call void @_ZNK6Atomic9StoreImplIPP12HeapWordImplS3_NS_13PlatformStoreILm8EEEvEclEPVS3_S3_(ptr noundef nonnull align 1 dereferenceable(1) %5, ptr noundef %6, ptr noundef %7)
  ret void
}

; Function Attrs: mustprogress nounwind uwtable
define linkonce_odr hidden noundef i32 @_ZNK12G1HeapRegion9hrm_indexEv(ptr noundef nonnull align 8 dereferenceable(136) %0) #1 comdat align 2 {
  %2 = alloca ptr, align 8
  store ptr %0, ptr %2, align 8
  %3 = load ptr, ptr %2, align 8
  %4 = getelementptr inbounds %class.G1HeapRegion, ptr %3, i32 0, i32 6
  %5 = load i32, ptr %4, align 8
  ret i32 %5
}

; Function Attrs: mustprogress nounwind uwtable
define hidden void @_ZN23G1FullGCCompactionPoint17initialize_valuesEv(ptr noundef nonnull align 8 dereferenceable(56) %0) #1 align 2 {
  %2 = alloca ptr, align 8
  store ptr %0, ptr %2, align 8
  %3 = load ptr, ptr %2, align 8
  %4 = getelementptr inbounds %class.G1FullGCCompactionPoint, ptr %3, i32 0, i32 0
  %5 = load ptr, ptr %4, align 8
  %6 = getelementptr inbounds %class.G1FullGCCompactionPoint, ptr %3, i32 0, i32 1
  %7 = load ptr, ptr %6, align 8
  %8 = call noundef ptr @_ZNK15G1FullCollector14compaction_topEP12G1HeapRegion(ptr noundef nonnull align 8 dereferenceable(824) %5, ptr noundef %7)
  %9 = getelementptr inbounds %class.G1FullGCCompactionPoint, ptr %3, i32 0, i32 2
  store ptr %8, ptr %9, align 8
  ret void
}

; Function Attrs: mustprogress nounwind uwtable
define hidden noundef ptr @_ZN23G1FullGCCompactionPoint11next_regionEv(ptr noundef nonnull align 8 dereferenceable(56) %0) #1 align 2 {
  %2 = alloca ptr, align 8
  %3 = alloca ptr, align 8
  store ptr %0, ptr %2, align 8
  %4 = load ptr, ptr %2, align 8
  %5 = getelementptr inbounds %class.G1FullGCCompactionPoint, ptr %4, i32 0, i32 5
  %6 = call noundef nonnull align 8 dereferenceable(12) ptr @_ZN21GrowableArrayIteratorIP12G1HeapRegionEppEv(ptr noundef nonnull align 8 dereferenceable(12) %5)
  %7 = call noundef ptr @_ZN21GrowableArrayIteratorIP12G1HeapRegionEdeEv(ptr noundef nonnull align 8 dereferenceable(12) %6)
  store ptr %7, ptr %3, align 8
  %8 = load ptr, ptr %3, align 8
  ret ptr %8
}

; Function Attrs: mustprogress nounwind uwtable
define linkonce_odr hidden void @_ZN15G1FullCollector18set_compaction_topEP12G1HeapRegionPP12HeapWordImpl(ptr noundef nonnull align 8 dereferenceable(824) %0, ptr noundef %1, ptr noundef %2) #1 comdat align 2 {
  %4 = alloca ptr, align 8
  %5 = alloca ptr, align 8
  %6 = alloca ptr, align 8
  store ptr %0, ptr %4, align 8
  store ptr %1, ptr %5, align 8
  store ptr %2, ptr %6, align 8
  %7 = load ptr, ptr %4, align 8
  %8 = getelementptr inbounds %class.G1FullCollector, ptr %7, i32 0, i32 19
  %9 = load ptr, ptr %8, align 8
  %10 = load ptr, ptr %5, align 8
  %11 = call noundef i32 @_ZNK12G1HeapRegion9hrm_indexEv(ptr noundef nonnull align 8 dereferenceable(136) %10)
  %12 = zext i32 %11 to i64
  %13 = getelementptr inbounds ptr, ptr %9, i64 %12
  %14 = load ptr, ptr %6, align 8
  call void @_ZN6Atomic5storeIPP12HeapWordImplS3_EEvPVT_T0_(ptr noundef %13, ptr noundef %14)
  ret void
}

; Function Attrs: mustprogress nounwind uwtable
define hidden void @_ZN23G1FullGCCompactionPoint13switch_regionEv(ptr noundef nonnull align 8 dereferenceable(56) %0) #1 align 2 {
  %2 = alloca ptr, align 8
  store ptr %0, ptr %2, align 8
  %3 = load ptr, ptr %2, align 8
  %4 = getelementptr inbounds %class.G1FullGCCompactionPoint, ptr %3, i32 0, i32 0
  %5 = load ptr, ptr %4, align 8
  %6 = getelementptr inbounds %class.G1FullGCCompactionPoint, ptr %3, i32 0, i32 1
  %7 = load ptr, ptr %6, align 8
  %8 = getelementptr inbounds %class.G1FullGCCompactionPoint, ptr %3, i32 0, i32 2
  %9 = load ptr, ptr %8, align 8
  call void @_ZN15G1FullCollector18set_compaction_topEP12G1HeapRegionPP12HeapWordImpl(ptr noundef nonnull align 8 dereferenceable(824) %5, ptr noundef %7, ptr noundef %9)
  %10 = call noundef ptr @_ZN23G1FullGCCompactionPoint11next_regionEv(ptr noundef nonnull align 8 dereferenceable(56) %3)
  %11 = getelementptr inbounds %class.G1FullGCCompactionPoint, ptr %3, i32 0, i32 1
  store ptr %10, ptr %11, align 8
  call void @_ZN23G1FullGCCompactionPoint17initialize_valuesEv(ptr noundef nonnull align 8 dereferenceable(56) %3)
  ret void
}